target datalayout = "e-m:e-p270:32:32-p271:32:32-p272:64:64-i64:64-i128:128-f80:128-n8:16:32:64-S128"
target triple = "x86_64-unknown-linux-gnu"

%class.ptr_vector = type { %class.vector }
%class.vector = type { ptr }
%class.svector.11 = type { %class.vector.12 }
%class.vector.12 = type { ptr }
%class.ptr_vector.43 = type { %class.vector.44 }
%class.vector.44 = type { ptr }
%"class.smt::theory_special_relations" = type <{ %"class.smt::theory.base", [3 x i8], %class.special_relations_util, %class.ptr_vector, %class.svector.11, %class.ptr_vector.45, %class.obj_map.47, %class.u_map.52, i8, [7 x i8] }>
%"class.smt::theory.base" = type <{ ptr, i32, [4 x i8], ptr, ptr, %class.ptr_vector.43, %class.svector.11, i32, i8 }>
%class.special_relations_util = type <{ ptr, i32, [4 x i8] }>
%class.ptr_vector.45 = type { %class.vector.46 }
%class.vector.46 = type { ptr }
%class.obj_map.47 = type { %class.core_hashtable.48 }
%class.core_hashtable.48 = type <{ ptr, i32, i32, i32, [4 x i8] }>
%class.u_map.52 = type { %class.map.53 }
%class.map.53 = type { %class.table2map.54 }
%class.table2map.54 = type { %class.core_hashtable.55 }
%class.core_hashtable.55 = type <{ ptr, i32, i32, i32, [4 x i8] }>
%"struct.obj_map<func_decl, smt::theory_special_relations::relation *>::key_data" = type { ptr, ptr }
%"class.core_hashtable<obj_map<func_decl, smt::theory_special_relations::relation *>::obj_map_entry, obj_hash<obj_map<func_decl, smt::theory_special_relations::relation *>::key_data>, default_eq<obj_map<func_decl, smt::theory_special_relations::relation *>::key_data>>::iterator" = type { ptr, ptr }
%"class.obj_map<func_decl, smt::theory_special_relations::relation *>::obj_map_entry" = type { %"struct.obj_map<func_decl, smt::theory_special_relations::relation *>::key_data" }

; Function Attrs: mustprogress nounwind uwtable
define linkonce_odr hidden noundef zeroext i1 @_ZNK7obj_mapI9func_declPN3smt24theory_special_relations8relationEE13obj_map_entry7is_usedEv(ptr noundef nonnull align 8 dereferenceable(16) %this) #4 comdat align 2 {
entry:
  %this.addr = alloca ptr, align 8
  store ptr %this, ptr %this.addr, align 8
  %this1 = load ptr, ptr %this.addr, align 8
  %m_data = getelementptr inbounds %"class.obj_map<func_decl, smt::theory_special_relations::relation *>::obj_map_entry", ptr %this1, i32 0, i32 0
  %m_key = getelementptr inbounds %"struct.obj_map<func_decl, smt::theory_special_relations::relation *>::key_data", ptr %m_data, i32 0, i32 0
  %0 = load ptr, ptr %m_key, align 8
  %cmp = icmp ne ptr %0, null
  br i1 %cmp, label %land.rhs, label %land.end

land.rhs:                                         ; preds = %entry
  %m_data2 = getelementptr inbounds %"class.obj_map<func_decl, smt::theory_special_relations::relation *>::obj_map_entry", ptr %this1, i32 0, i32 0
  %m_key3 = getelementptr inbounds %"struct.obj_map<func_decl, smt::theory_special_relations::relation *>::key_data", ptr %m_data2, i32 0, i32 0
  %1 = load ptr, ptr %m_key3, align 8
  %cmp4 = icmp ne ptr %1, inttoptr (i64 1 to ptr)
  br label %land.end

land.end:                                         ; preds = %land.rhs, %entry
  %2 = phi i1 [ false, %entry ], [ %cmp4, %land.rhs ]
  ret i1 %2
}

; Function Attrs: mustprogress uwtable
define linkonce_odr hidden void @_ZN14core_hashtableIN7obj_mapI9func_declPN3smt24theory_special_relations8relationEE13obj_map_entryE8obj_hashINS6_8key_dataEE10default_eqIS9_EE8iteratorC2EPS7_SF_(ptr noundef nonnull align 8 dereferenceable(16) %this, ptr noundef %start, ptr noundef %end) unnamed_addr #5 comdat align 2 {
entry:
  %this.addr = alloca ptr, align 8
  %start.addr = alloca ptr, align 8
  %end.addr = alloca ptr, align 8
  store ptr %this, ptr %this.addr, align 8
  store ptr %start, ptr %start.addr, align 8
  store ptr %end, ptr %end.addr, align 8
  %this1 = load ptr, ptr %this.addr, align 8
  %m_curr = getelementptr inbounds %"class.core_hashtable<obj_map<func_decl, smt::theory_special_relations::relation *>::obj_map_entry, obj_hash<obj_map<func_decl, smt::theory_special_relations::relation *>::key_data>, default_eq<obj_map<func_decl, smt::theory_special_relations::relation *>::key_data>>::iterator", ptr %this1, i32 0, i32 0
  %0 = load ptr, ptr %start.addr, align 8
  store ptr %0, ptr %m_curr, align 8
  %m_end = getelementptr inbounds %"class.core_hashtable<obj_map<func_decl, smt::theory_special_relations::relation *>::obj_map_entry, obj_hash<obj_map<func_decl, smt::theory_special_relations::relation *>::key_data>, default_eq<obj_map<func_decl, smt::theory_special_relations::relation *>::key_data>>::iterator", ptr %this1, i32 0, i32 1
  %1 = load ptr, ptr %end.addr, align 8
  store ptr %1, ptr %m_end, align 8
  call void @_ZN14core_hashtableIN7obj_mapI9func_declPN3smt24theory_special_relations8relationEE13obj_map_entryE8obj_hashINS6_8key_dataEE10default_eqIS9_EE8iterator12move_to_usedEv(ptr noundef nonnull align 8 dereferenceable(16) %this1)
  ret void
}

; Function Attrs: mustprogress nounwind uwtable
define linkonce_odr hidden void @_ZN14core_hashtableIN7obj_mapI9func_declPN3smt24theory_special_relations8relationEE13obj_map_entryE8obj_hashINS6_8key_dataEE10default_eqIS9_EE8iterator12move_to_usedEv(ptr noundef nonnull align 8 dereferenceable(16) %this) #4 comdat align 2 {
entry:
  %this.addr = alloca ptr, align 8
  store ptr %this, ptr %this.addr, align 8
  %this1 = load ptr, ptr %this.addr, align 8
  br label %while.cond

while.cond:                                       ; preds = %while.body, %entry
  %m_curr = getelementptr inbounds %"class.core_hashtable<obj_map<func_decl, smt::theory_special_relations::relation *>::obj_map_entry, obj_hash<obj_map<func_decl, smt::theory_special_relations::relation *>::key_data>, default_eq<obj_map<func_decl, smt::theory_special_relations::relation *>::key_data>>::iterator", ptr %this1, i32 0, i32 0
  %0 = load ptr, ptr %m_curr, align 8
  %m_end = getelementptr inbounds %"class.core_hashtable<obj_map<func_decl, smt::theory_special_relations::relation *>::obj_map_entry, obj_hash<obj_map<func_decl, smt::theory_special_relations::relation *>::key_data>, default_eq<obj_map<func_decl, smt::theory_special_relations::relation *>::key_data>>::iterator", ptr %this1, i32 0, i32 1
  %1 = load ptr, ptr %m_end, align 8
  %cmp = icmp ne ptr %0, %1
  br i1 %cmp, label %land.rhs, label %land.end

land.rhs:                                         ; preds = %while.cond
  %m_curr2 = getelementptr inbounds %"class.core_hashtable<obj_map<func_decl, smt::theory_special_relations::relation *>::obj_map_entry, obj_hash<obj_map<func_decl, smt::theory_special_relations::relation *>::key_data>, default_eq<obj_map<func_decl, smt::theory_special_relations::relation *>::key_data>>::iterator", ptr %this1, i32 0, i32 0
  %2 = load ptr, ptr %m_curr2, align 8
  %call = call noundef zeroext i1 @_ZNK7obj_mapI9func_declPN3smt24theory_special_relations8relationEE13obj_map_entry7is_usedEv(ptr noundef nonnull align 8 dereferenceable(16) %2)
  %lnot = xor i1 %call, true
  br label %land.end

land.end:                                         ; preds = %land.rhs, %while.cond
  %3 = phi i1 [ false, %while.cond ], [ %lnot, %land.rhs ]
  br i1 %3, label %while.body, label %while.end

while.body:                                       ; preds = %land.end
  %m_curr3 = getelementptr inbounds %"class.core_hashtable<obj_map<func_decl, smt::theory_special_relations::relation *>::obj_map_entry, obj_hash<obj_map<func_decl, smt::theory_special_relations::relation *>::key_data>, default_eq<obj_map<func_decl, smt::theory_special_relations::relation *>::key_data>>::iterator", ptr %this1, i32 0, i32 0
  %4 = load ptr, ptr %m_curr3, align 8
  %incdec.ptr = getelementptr inbounds %"class.obj_map<func_decl, smt::theory_special_relations::relation *>::obj_map_entry", ptr %4, i32 1
  store ptr %incdec.ptr, ptr %m_curr3, align 8
  br label %while.cond, !llvm.loop !100

while.end:                                        ; preds = %land.end
  ret void
}

; Function Attrs: mustprogress nounwind uwtable
define linkonce_odr hidden noundef nonnull align 8 dereferenceable(16) ptr @_ZN7obj_mapI9func_declPN3smt24theory_special_relations8relationEE13obj_map_entry8get_dataEv(ptr noundef nonnull align 8 dereferenceable(16) %this) #4 comdat align 2 {
entry:
  %this.addr = alloca ptr, align 8
  store ptr %this, ptr %this.addr, align 8
  %this1 = load ptr, ptr %this.addr, align 8
  %m_data = getelementptr inbounds %"class.obj_map<func_decl, smt::theory_special_relations::relation *>::obj_map_entry", ptr %this1, i32 0, i32 0
  ret ptr %m_data
}

; Function Attrs: mustprogress uwtable
define linkonce_odr hidden { ptr, ptr } @_ZNK14core_hashtableIN7obj_mapI9func_declPN3smt24theory_special_relations8relationEE13obj_map_entryE8obj_hashINS6_8key_dataEE10default_eqIS9_EE3endEv(ptr noundef nonnull align 8 dereferenceable(20) %this) #5 comdat align 2 {
entry:
  %retval = alloca %"class.core_hashtable<obj_map<func_decl, smt::theory_special_relations::relation *>::obj_map_entry, obj_hash<obj_map<func_decl, smt::theory_special_relations::relation *>::key_data>, default_eq<obj_map<func_decl, smt::theory_special_relations::relation *>::key_data>>::iterator", align 8
  %this.addr = alloca ptr, align 8
  store ptr %this, ptr %this.addr, align 8
  %this1 = load ptr, ptr %this.addr, align 8
  %m_table = getelementptr inbounds %class.core_hashtable.48, ptr %this1, i32 0, i32 0
  %0 = load ptr, ptr %m_table, align 8
  %m_capacity = getelementptr inbounds %class.core_hashtable.48, ptr %this1, i32 0, i32 1
  %1 = load i32, ptr %m_capacity, align 8
  %idx.ext = zext i32 %1 to i64
  %add.ptr = getelementptr inbounds %"class.obj_map<func_decl, smt::theory_special_relations::relation *>::obj_map_entry", ptr %0, i64 %idx.ext
  %m_table2 = getelementptr inbounds %class.core_hashtable.48, ptr %this1, i32 0, i32 0
  %2 = load ptr, ptr %m_table2, align 8
  %m_capacity3 = getelementptr inbounds %class.core_hashtable.48, ptr %this1, i32 0, i32 1
  %3 = load i32, ptr %m_capacity3, align 8
  %idx.ext4 = zext i32 %3 to i64
  %add.ptr5 = getelementptr inbounds %"class.obj_map<func_decl, smt::theory_special_relations::relation *>::obj_map_entry", ptr %2, i64 %idx.ext4
  call void @_ZN14core_hashtableIN7obj_mapI9func_declPN3smt24theory_special_relations8relationEE13obj_map_entryE8obj_hashINS6_8key_dataEE10default_eqIS9_EE8iteratorC2EPS7_SF_(ptr noundef nonnull align 8 dereferenceable(16) %retval, ptr noundef %add.ptr, ptr noundef %add.ptr5)
  %4 = load { ptr, ptr }, ptr %retval, align 8
  ret { ptr, ptr } %4
}

; Function Attrs: mustprogress uwtable
define linkonce_odr hidden { ptr, ptr } @_ZNK14core_hashtableIN7obj_mapI9func_declPN3smt24theory_special_relations8relationEE13obj_map_entryE8obj_hashINS6_8key_dataEE10default_eqIS9_EE5beginEv(ptr noundef nonnull align 8 dereferenceable(20) %this) #5 comdat align 2 {
entry:
  %retval = alloca %"class.core_hashtable<obj_map<func_decl, smt::theory_special_relations::relation *>::obj_map_entry, obj_hash<obj_map<func_decl, smt::theory_special_relations::relation *>::key_data>, default_eq<obj_map<func_decl, smt::theory_special_relations::relation *>::key_data>>::iterator", align 8
  %this.addr = alloca ptr, align 8
  store ptr %this, ptr %this.addr, align 8
  %this1 = load ptr, ptr %this.addr, align 8
  %m_table = getelementptr inbounds %class.core_hashtable.48, ptr %this1, i32 0, i32 0
  %0 = load ptr, ptr %m_table, align 8
  %m_table2 = getelementptr inbounds %class.core_hashtable.48, ptr %this1, i32 0, i32 0
  %1 = load ptr, ptr %m_table2, align 8
  %m_capacity = getelementptr inbounds %class.core_hashtable.48, ptr %this1, i32 0, i32 1
  %2 = load i32, ptr %m_capacity, align 8
  %idx.ext = zext i32 %2 to i64
  %add.ptr = getelementptr inbounds %"class.obj_map<func_decl, smt::theory_special_relations::relation *>::obj_map_entry", ptr %1, i64 %idx.ext
  call void @_ZN14core_hashtableIN7obj_mapI9func_declPN3smt24theory_special_relations8relationEE13obj_map_entryE8obj_hashINS6_8key_dataEE10default_eqIS9_EE8iteratorC2EPS7_SF_(ptr noundef nonnull align 8 dereferenceable(16) %retval, ptr noundef %0, ptr noundef %add.ptr)
  %3 = load { ptr, ptr }, ptr %retval, align 8
  ret { ptr, ptr } %3
}

; Function Attrs: mustprogress nounwind uwtable
define linkonce_odr hidden noundef nonnull align 8 dereferenceable(16) ptr @_ZN14core_hashtableIN7obj_mapI9func_declPN3smt24theory_special_relations8relationEE13obj_map_entryE8obj_hashINS6_8key_dataEE10default_eqIS9_EE8iteratorppEv(ptr noundef nonnull align 8 dereferenceable(16) %this) #4 comdat align 2 {
entry:
  %this.addr = alloca ptr, align 8
  store ptr %this, ptr %this.addr, align 8
  %this1 = load ptr, ptr %this.addr, align 8
  %m_curr = getelementptr inbounds %"class.core_hashtable<obj_map<func_decl, smt::theory_special_relations::relation *>::obj_map_entry, obj_hash<obj_map<func_decl, smt::theory_special_relations::relation *>::key_data>, default_eq<obj_map<func_decl, smt::theory_special_relations::relation *>::key_data>>::iterator", ptr %this1, i32 0, i32 0
  %0 = load ptr, ptr %m_curr, align 8
  %incdec.ptr = getelementptr inbounds %"class.obj_map<func_decl, smt::theory_special_relations::relation *>::obj_map_entry", ptr %0, i32 1
  store ptr %incdec.ptr, ptr %m_curr, align 8
  call void @_ZN14core_hashtableIN7obj_mapI9func_declPN3smt24theory_special_relations8relationEE13obj_map_entryE8obj_hashINS6_8key_dataEE10default_eqIS9_EE8iterator12move_to_usedEv(ptr noundef nonnull align 8 dereferenceable(16) %this1)
  ret ptr %this1
}

; Function Attrs: mustprogress nounwind uwtable
define linkonce_odr hidden noundef nonnull align 8 dereferenceable(16) ptr @_ZN14core_hashtableIN7obj_mapI9func_declPN3smt24theory_special_relations8relationEE13obj_map_entryE8obj_hashINS6_8key_dataEE10default_eqIS9_EE8iteratordeEv(ptr noundef nonnull align 8 dereferenceable(16) %this) #4 comdat align 2 {
entry:
  %this.addr = alloca ptr, align 8
  store ptr %this, ptr %this.addr, align 8
  %this1 = load ptr, ptr %this.addr, align 8
  %m_curr = getelementptr inbounds %"class.core_hashtable<obj_map<func_decl, smt::theory_special_relations::relation *>::obj_map_entry, obj_hash<obj_map<func_decl, smt::theory_special_relations::relation *>::key_data>, default_eq<obj_map<func_decl, smt::theory_special_relations::relation *>::key_data>>::iterator", ptr %this1, i32 0, i32 0
  %0 = load ptr, ptr %m_curr, align 8
  %call = call noundef nonnull align 8 dereferenceable(16) ptr @_ZN7obj_mapI9func_declPN3smt24theory_special_relations8relationEE13obj_map_entry8get_dataEv(ptr noundef nonnull align 8 dereferenceable(16) %0)
  ret ptr %call
}

; Function Attrs: mustprogress nounwind uwtable
define linkonce_odr hidden noundef zeroext i1 @_ZNK14core_hashtableIN7obj_mapI9func_declPN3smt24theory_special_relations8relationEE13obj_map_entryE8obj_hashINS6_8key_dataEE10default_eqIS9_EE8iteratorneERKSE_(ptr noundef nonnull align 8 dereferenceable(16) %this, ptr noundef nonnull align 8 dereferenceable(16) %it) #4 comdat align 2 {
entry:
  %this.addr = alloca ptr, align 8
  %it.addr = alloca ptr, align 8
  store ptr %this, ptr %this.addr, align 8
  store ptr %it, ptr %it.addr, align 8
  %this1 = load ptr, ptr %this.addr, align 8
  %m_curr = getelementptr inbounds %"class.core_hashtable<obj_map<func_decl, smt::theory_special_relations::relation *>::obj_map_entry, obj_hash<obj_map<func_decl, smt::theory_special_relations::relation *>::key_data>, default_eq<obj_map<func_decl, smt::theory_special_relations::relation *>::key_data>>::iterator", ptr %this1, i32 0, i32 0
  %0 = load ptr, ptr %m_curr, align 8
  %1 = load ptr, ptr %it.addr, align 8
  %m_curr2 = getelementptr inbounds %"class.core_hashtable<obj_map<func_decl, smt::theory_special_relations::relation *>::obj_map_entry, obj_hash<obj_map<func_decl, smt::theory_special_relations::relation *>::key_data>, default_eq<obj_map<func_decl, smt::theory_special_relations::relation *>::key_data>>::iterator", ptr %1, i32 0, i32 0
  %2 = load ptr, ptr %m_curr2, align 8
  %cmp = icmp ne ptr %0, %2
  ret i1 %cmp
}

; Function Attrs: mustprogress uwtable
define linkonce_odr hidden { ptr, ptr } @_ZNK7obj_mapI9func_declPN3smt24theory_special_relations8relationEE3endEv(ptr noundef nonnull align 8 dereferenceable(24) %this) #5 comdat align 2 {
entry:
  %retval = alloca %"class.core_hashtable<obj_map<func_decl, smt::theory_special_relations::relation *>::obj_map_entry, obj_hash<obj_map<func_decl, smt::theory_special_relations::relation *>::key_data>, default_eq<obj_map<func_decl, smt::theory_special_relations::relation *>::key_data>>::iterator", align 8
  %this.addr = alloca ptr, align 8
  store ptr %this, ptr %this.addr, align 8
  %this1 = load ptr, ptr %this.addr, align 8
  %m_table = getelementptr inbounds %class.obj_map.47, ptr %this1, i32 0, i32 0
  %call = call { ptr, ptr } @_ZNK14core_hashtableIN7obj_mapI9func_declPN3smt24theory_special_relations8relationEE13obj_map_entryE8obj_hashINS6_8key_dataEE10default_eqIS9_EE3endEv(ptr noundef nonnull align 8 dereferenceable(20) %m_table)
  %0 = getelementptr inbounds { ptr, ptr }, ptr %retval, i32 0, i32 0
  %1 = extractvalue { ptr, ptr } %call, 0
  store ptr %1, ptr %0, align 8
  %2 = getelementptr inbounds { ptr, ptr }, ptr %retval, i32 0, i32 1
  %3 = extractvalue { ptr, ptr } %call, 1
  store ptr %3, ptr %2, align 8
  %4 = load { ptr, ptr }, ptr %retval, align 8
  ret { ptr, ptr } %4
}

; Function Attrs: mustprogress uwtable
define linkonce_odr hidden { ptr, ptr } @_ZNK7obj_mapI9func_declPN3smt24theory_special_relations8relationEE5beginEv(ptr noundef nonnull align 8 dereferenceable(24) %this) #5 comdat align 2 {
entry:
  %retval = alloca %"class.core_hashtable<obj_map<func_decl, smt::theory_special_relations::relation *>::obj_map_entry, obj_hash<obj_map<func_decl, smt::theory_special_relations::relation *>::key_data>, default_eq<obj_map<func_decl, smt::theory_special_relations::relation *>::key_data>>::iterator", align 8
  %this.addr = alloca ptr, align 8
  store ptr %this, ptr %this.addr, align 8
  %this1 = load ptr, ptr %this.addr, align 8
  %m_table = getelementptr inbounds %class.obj_map.47, ptr %this1, i32 0, i32 0
  %call = call { ptr, ptr } @_ZNK14core_hashtableIN7obj_mapI9func_declPN3smt24theory_special_relations8relationEE13obj_map_entryE8obj_hashINS6_8key_dataEE10default_eqIS9_EE5beginEv(ptr noundef nonnull align 8 dereferenceable(20) %m_table)
  %0 = getelementptr inbounds { ptr, ptr }, ptr %retval, i32 0, i32 0
  %1 = extractvalue { ptr, ptr } %call, 0
  store ptr %1, ptr %0, align 8
  %2 = getelementptr inbounds { ptr, ptr }, ptr %retval, i32 0, i32 1
  %3 = extractvalue { ptr, ptr } %call, 1
  store ptr %3, ptr %2, align 8
  %4 = load { ptr, ptr }, ptr %retval, align 8
  ret { ptr, ptr } %4
}

; Function Attrs: mustprogress uwtable
define hidden void @_ZN3smt24theory_special_relations9propagateEv(ptr noundef nonnull align 8 dereferenceable(145) %this) unnamed_addr #5 align 2 {
entry:
  %this.addr = alloca ptr, align 8
  %__range2 = alloca ptr, align 8
  %__begin2 = alloca %"class.core_hashtable<obj_map<func_decl, smt::theory_special_relations::relation *>::obj_map_entry, obj_hash<obj_map<func_decl, smt::theory_special_relations::relation *>::key_data>, default_eq<obj_map<func_decl, smt::theory_special_relations::relation *>::key_data>>::iterator", align 8
  %__end2 = alloca %"class.core_hashtable<obj_map<func_decl, smt::theory_special_relations::relation *>::obj_map_entry, obj_hash<obj_map<func_decl, smt::theory_special_relations::relation *>::key_data>, default_eq<obj_map<func_decl, smt::theory_special_relations::relation *>::key_data>>::iterator", align 8
  %kv = alloca ptr, align 8
  store ptr %this, ptr %this.addr, align 8
  %this1 = load ptr, ptr %this.addr, align 8
  %m_can_propagate = getelementptr inbounds %"class.smt::theory_special_relations", ptr %this1, i32 0, i32 8
  %0 = load i8, ptr %m_can_propagate, align 8
  %tobool = trunc i8 %0 to i1
  br i1 %tobool, label %if.then, label %if.end

if.then:                                          ; preds = %entry
  %m_relations = getelementptr inbounds %"class.smt::theory_special_relations", ptr %this1, i32 0, i32 6
  store ptr %m_relations, ptr %__range2, align 8
  %1 = load ptr, ptr %__range2, align 8
  %call = call { ptr, ptr } @_ZNK7obj_mapI9func_declPN3smt24theory_special_relations8relationEE5beginEv(ptr noundef nonnull align 8 dereferenceable(24) %1)
  %2 = getelementptr inbounds { ptr, ptr }, ptr %__begin2, i32 0, i32 0
  %3 = extractvalue { ptr, ptr } %call, 0
  store ptr %3, ptr %2, align 8
  %4 = getelementptr inbounds { ptr, ptr }, ptr %__begin2, i32 0, i32 1
  %5 = extractvalue { ptr, ptr } %call, 1
  store ptr %5, ptr %4, align 8
  %6 = load ptr, ptr %__range2, align 8
  %call2 = call { ptr, ptr } @_ZNK7obj_mapI9func_declPN3smt24theory_special_relations8relationEE3endEv(ptr noundef nonnull align 8 dereferenceable(24) %6)
  %7 = getelementptr inbounds { ptr, ptr }, ptr %__end2, i32 0, i32 0
  %8 = extractvalue { ptr, ptr } %call2, 0
  store ptr %8, ptr %7, align 8
  %9 = getelementptr inbounds { ptr, ptr }, ptr %__end2, i32 0, i32 1
  %10 = extractvalue { ptr, ptr } %call2, 1
  store ptr %10, ptr %9, align 8
  br label %for.cond

for.cond:                                         ; preds = %for.inc, %if.then
  %call3 = call noundef zeroext i1 @_ZNK14core_hashtableIN7obj_mapI9func_declPN3smt24theory_special_relations8relationEE13obj_map_entryE8obj_hashINS6_8key_dataEE10default_eqIS9_EE8iteratorneERKSE_(ptr noundef nonnull align 8 dereferenceable(16) %__begin2, ptr noundef nonnull align 8 dereferenceable(16) %__end2)
  br i1 %call3, label %for.body, label %for.end

for.body:                                         ; preds = %for.cond
  %call4 = call noundef nonnull align 8 dereferenceable(16) ptr @_ZN14core_hashtableIN7obj_mapI9func_declPN3smt24theory_special_relations8relationEE13obj_map_entryE8obj_hashINS6_8key_dataEE10default_eqIS9_EE8iteratordeEv(ptr noundef nonnull align 8 dereferenceable(16) %__begin2)
  store ptr %call4, ptr %kv, align 8
  %11 = load ptr, ptr %kv, align 8
  %m_value = getelementptr inbounds %"struct.obj_map<func_decl, smt::theory_special_relations::relation *>::key_data", ptr %11, i32 0, i32 1
  %12 = load ptr, ptr %m_value, align 8
  %call5 = call noundef i32 @_ZN3smt24theory_special_relations9propagateERNS0_8relationE(ptr noundef nonnull align 8 dereferenceable(145) %this1, ptr noundef nonnull align 8 dereferenceable(552) %12)
  br label %for.inc

for.inc:                                          ; preds = %for.body
  %call6 = call noundef nonnull align 8 dereferenceable(16) ptr @_ZN14core_hashtableIN7obj_mapI9func_declPN3smt24theory_special_relations8relationEE13obj_map_entryE8obj_hashINS6_8key_dataEE10default_eqIS9_EE8iteratorppEv(ptr noundef nonnull align 8 dereferenceable(16) %__begin2)
  br label %for.cond

for.end:                                          ; preds = %for.cond
  %m_can_propagate7 = getelementptr inbounds %"class.smt::theory_special_relations", ptr %this1, i32 0, i32 8
  store i8 0, ptr %m_can_propagate7, align 8
  br label %if.end

if.end:                                           ; preds = %for.end, %entry
  ret void
}