; Function Attrs: mustprogress uwtable
define hidden void @_ZN3smt24theory_special_relations9propagateEv(ptr nocapture noundef nonnull align 8 dereferenceable(145) %this) unnamed_addr #3 align 2 {
entry:
  %m_can_propagate = getelementptr inbounds i8, ptr %this, i64 144
  %0 = load i8, ptr %m_can_propagate, align 8
  %1 = and i8 %0, 1
  %tobool.not = icmp eq i8 %1, 0
  br i1 %tobool.not, label %if.end, label %if.then

if.then:                                          ; preds = %entry
  %m_relations = getelementptr inbounds i8, ptr %this, i64 96
  %2 = load ptr, ptr %m_relations, align 8
  %m_capacity.i.i = getelementptr inbounds i8, ptr %this, i64 104
  %3 = load i32, ptr %m_capacity.i.i, align 8
  %idx.ext.i.i = zext i32 %3 to i64
  %add.ptr.i.i = getelementptr inbounds %"class.obj_map<func_decl, smt::theory_special_relations::relation *>::obj_map_entry", ptr %2, i64 %idx.ext.i.i
  %cmp.not2.i.i.i.i = icmp eq i32 %3, 0
  br i1 %cmp.not2.i.i.i.i, label %_ZNK7obj_mapI9func_declPN3smt24theory_special_relations8relationEE5beginEv.exit, label %land.rhs.i.i.i.i

land.rhs.i.i.i.i:                                 ; preds = %if.then, %while.body.i.i.i.i
  %retval.sroa.0.0.i.i = phi ptr [ %incdec.ptr.i.i.i.i, %while.body.i.i.i.i ], [ %2, %if.then ]
  %4 = load ptr, ptr %retval.sroa.0.0.i.i, align 8
  %switch.i.i.i.i = icmp ult ptr %4, inttoptr (i64 2 to ptr)
  br i1 %switch.i.i.i.i, label %while.body.i.i.i.i, label %_ZNK7obj_mapI9func_declPN3smt24theory_special_relations8relationEE5beginEv.exit

while.body.i.i.i.i:                               ; preds = %land.rhs.i.i.i.i
  %incdec.ptr.i.i.i.i = getelementptr inbounds i8, ptr %retval.sroa.0.0.i.i, i64 16
  %cmp.not.i.i.i.i = icmp eq ptr %incdec.ptr.i.i.i.i, %add.ptr.i.i
  br i1 %cmp.not.i.i.i.i, label %for.end, label %land.rhs.i.i.i.i, !llvm.loop !20

_ZNK7obj_mapI9func_declPN3smt24theory_special_relations8relationEE5beginEv.exit: ; preds = %land.rhs.i.i.i.i, %if.then
  %retval.sroa.0.1.i.i = phi ptr [ %2, %if.then ], [ %retval.sroa.0.0.i.i, %land.rhs.i.i.i.i ]
  %cmp.i.not9 = icmp eq ptr %retval.sroa.0.1.i.i, %add.ptr.i.i
  br i1 %cmp.i.not9, label %for.end, label %for.body

for.body:                                         ; preds = %_ZNK7obj_mapI9func_declPN3smt24theory_special_relations8relationEE5beginEv.exit, %_ZN14core_hashtableIN7obj_mapI9func_declPN3smt24theory_special_relations8relationEE13obj_map_entryE8obj_hashINS6_8key_dataEE10default_eqIS9_EE8iteratorppEv.exit
  %__begin2.sroa.0.010 = phi ptr [ %__begin2.sroa.0.1, %_ZN14core_hashtableIN7obj_mapI9func_declPN3smt24theory_special_relations8relationEE13obj_map_entryE8obj_hashINS6_8key_dataEE10default_eqIS9_EE8iteratorppEv.exit ], [ %retval.sroa.0.1.i.i, %_ZNK7obj_mapI9func_declPN3smt24theory_special_relations8relationEE5beginEv.exit ]
  %m_value = getelementptr inbounds i8, ptr %__begin2.sroa.0.010, i64 8
  %5 = load ptr, ptr %m_value, align 8
  %call5 = tail call noundef i32 @_ZN3smt24theory_special_relations9propagateERNS0_8relationE(ptr noundef nonnull align 8 dereferenceable(145) %this, ptr noundef nonnull align 8 dereferenceable(552) %5), !range !21
  %incdec.ptr.i = getelementptr inbounds i8, ptr %__begin2.sroa.0.010, i64 16
  %cmp.not2.i.i = icmp eq ptr %incdec.ptr.i, %add.ptr.i.i
  br i1 %cmp.not2.i.i, label %for.end, label %land.rhs.i.i

land.rhs.i.i:                                     ; preds = %for.body, %while.body.i.i
  %__begin2.sroa.0.1 = phi ptr [ %incdec.ptr.i.i, %while.body.i.i ], [ %incdec.ptr.i, %for.body ]
  %6 = load ptr, ptr %__begin2.sroa.0.1, align 8
  %switch.i.i = icmp ult ptr %6, inttoptr (i64 2 to ptr)
  br i1 %switch.i.i, label %while.body.i.i, label %_ZN14core_hashtableIN7obj_mapI9func_declPN3smt24theory_special_relations8relationEE13obj_map_entryE8obj_hashINS6_8key_dataEE10default_eqIS9_EE8iteratorppEv.exit

while.body.i.i:                                   ; preds = %land.rhs.i.i
  %incdec.ptr.i.i = getelementptr inbounds i8, ptr %__begin2.sroa.0.1, i64 16
  %cmp.not.i.i = icmp eq ptr %incdec.ptr.i.i, %add.ptr.i.i
  br i1 %cmp.not.i.i, label %for.end, label %land.rhs.i.i, !llvm.loop !20

_ZN14core_hashtableIN7obj_mapI9func_declPN3smt24theory_special_relations8relationEE13obj_map_entryE8obj_hashINS6_8key_dataEE10default_eqIS9_EE8iteratorppEv.exit: ; preds = %land.rhs.i.i
  %cmp.i.not = icmp eq ptr %__begin2.sroa.0.1, %add.ptr.i.i
  br i1 %cmp.i.not, label %for.end, label %for.body

for.end:                                          ; preds = %while.body.i.i.i.i, %for.body, %_ZN14core_hashtableIN7obj_mapI9func_declPN3smt24theory_special_relations8relationEE13obj_map_entryE8obj_hashINS6_8key_dataEE10default_eqIS9_EE8iteratorppEv.exit, %while.body.i.i, %_ZNK7obj_mapI9func_declPN3smt24theory_special_relations8relationEE5beginEv.exit
  store i8 0, ptr %m_can_propagate, align 8
  br label %if.end

if.end:                                           ; preds = %for.end, %entry
  ret void
}